target datalayout = "e-m:e-p270:32:32-p271:32:32-p272:64:64-i64:64-i128:128-f80:128-n8:16:32:64-S128"
target triple = "x86_64-pc-linux-gnu"

%"struct.vcpkg::StringView" = type { ptr, i64 }

@_ZZN5vcpkg3msgL27write_unlocalized_text_implENS_5ColorENS_10StringViewEibE20reset_color_sequence = internal constant [4 x i8] c"\1B[0m", align 1
@stderr = external global ptr, align 8
@.str.2671 = private unnamed_addr constant [39 x i8] c"[DEBUG] Failed to print to stdout: %d\0A\00", align 1

; Function Attrs: mustprogress nounwind uwtable
define linkonce_odr dso_local noundef i64 @_ZNK5vcpkg10StringView4sizeEv(ptr noundef nonnull align 8 dereferenceable(16) %0) #0 comdat align 2 {
  %2 = alloca ptr, align 8
  store ptr %0, ptr %2, align 8
  %3 = load ptr, ptr %2, align 8
  %4 = getelementptr inbounds %"struct.vcpkg::StringView", ptr %3, i32 0, i32 1
  %5 = load i64, ptr %4, align 8
  ret i64 %5
}

; Function Attrs: mustprogress nounwind uwtable
define linkonce_odr dso_local noundef ptr @_ZNK5vcpkg10StringView4dataEv(ptr noundef nonnull align 8 dereferenceable(16) %0) #0 comdat align 2 {
  %2 = alloca ptr, align 8
  store ptr %0, ptr %2, align 8
  %3 = load ptr, ptr %2, align 8
  %4 = getelementptr inbounds %"struct.vcpkg::StringView", ptr %3, i32 0, i32 0
  %5 = load ptr, ptr %4, align 8
  ret ptr %5
}

; Function Attrs: mustprogress uwtable
define internal void @_ZN5vcpkg3msgL9write_allEPKcmi(ptr noundef %0, i64 noundef %1, i32 noundef %2) #2 {
  %4 = alloca ptr, align 8
  %5 = alloca i64, align 8
  %6 = alloca i32, align 4
  %7 = alloca i64, align 8
  store ptr %0, ptr %4, align 8
  store i64 %1, ptr %5, align 8
  store i32 %2, ptr %6, align 4
  br label %8

8:                                                ; preds = %23, %3
  %9 = load i64, ptr %5, align 8
  %10 = icmp ne i64 %9, 0
  br i1 %10, label %11, label %30

11:                                               ; preds = %8
  %12 = load i32, ptr %6, align 4
  %13 = load ptr, ptr %4, align 8
  %14 = load i64, ptr %5, align 8
  %15 = call i64 @write(i32 noundef %12, ptr noundef %13, i64 noundef %14)
  store i64 %15, ptr %7, align 8
  %16 = load i64, ptr %7, align 8
  %17 = icmp eq i64 %16, -1
  br i1 %17, label %18, label %23

18:                                               ; preds = %11
  %19 = load ptr, ptr @stderr, align 8
  %20 = call ptr @__errno_location() #22
  %21 = load i32, ptr %20, align 4
  %22 = call i32 (ptr, ptr, ...) @fprintf(ptr noundef %19, ptr noundef @.str.2671, i32 noundef %21) #8
  call void @abort() #18
  unreachable

23:                                               ; preds = %11
  %24 = load i64, ptr %7, align 8
  %25 = load ptr, ptr %4, align 8
  %26 = getelementptr inbounds i8, ptr %25, i64 %24
  store ptr %26, ptr %4, align 8
  %27 = load i64, ptr %7, align 8
  %28 = load i64, ptr %5, align 8
  %29 = sub i64 %28, %27
  store i64 %29, ptr %5, align 8
  br label %8, !llvm.loop !15

30:                                               ; preds = %8
  ret void
}

; Function Attrs: mustprogress nounwind uwtable
define linkonce_odr dso_local noundef zeroext i1 @_ZNK5vcpkg10StringView5emptyEv(ptr noundef nonnull align 8 dereferenceable(16) %0) #0 comdat align 2 {
  %2 = alloca ptr, align 8
  store ptr %0, ptr %2, align 8
  %3 = load ptr, ptr %2, align 8
  %4 = getelementptr inbounds %"struct.vcpkg::StringView", ptr %3, i32 0, i32 1
  %5 = load i64, ptr %4, align 8
  %6 = icmp eq i64 %5, 0
  ret i1 %6
}

; Function Attrs: mustprogress uwtable
define internal void @_ZN5vcpkg3msgL27write_unlocalized_text_implENS_5ColorENS_10StringViewEib(i8 noundef signext %0, ptr %1, i64 %2, i32 noundef %3, i1 noundef zeroext %4) #2 {
  %6 = alloca %"struct.vcpkg::StringView", align 8
  %7 = alloca i8, align 1
  %8 = alloca i32, align 4
  %9 = alloca i8, align 1
  %10 = alloca i8, align 1
  %11 = alloca [5 x i8], align 1
  %12 = getelementptr inbounds { ptr, i64 }, ptr %6, i32 0, i32 0
  store ptr %1, ptr %12, align 8
  %13 = getelementptr inbounds { ptr, i64 }, ptr %6, i32 0, i32 1
  store i64 %2, ptr %13, align 8
  store i8 %0, ptr %7, align 1
  store i32 %3, ptr %8, align 4
  %14 = zext i1 %4 to i8
  store i8 %14, ptr %9, align 1
  %15 = call noundef zeroext i1 @_ZNK5vcpkg10StringView5emptyEv(ptr noundef nonnull align 8 dereferenceable(16) %6) #8
  br i1 %15, label %16, label %17

16:                                               ; preds = %5
  br label %40

17:                                               ; preds = %5
  store i8 0, ptr %10, align 1
  %18 = load i8, ptr %9, align 1
  %19 = trunc i8 %18 to i1
  br i1 %19, label %20, label %32

20:                                               ; preds = %17
  %21 = load i8, ptr %7, align 1
  %22 = icmp ne i8 %21, 0
  br i1 %22, label %23, label %32

23:                                               ; preds = %20
  store i8 1, ptr %10, align 1
  %24 = getelementptr inbounds [5 x i8], ptr %11, i64 0, i64 0
  store i8 27, ptr %24, align 1
  %25 = getelementptr inbounds i8, ptr %24, i64 1
  store i8 91, ptr %25, align 1
  %26 = getelementptr inbounds i8, ptr %25, i64 1
  store i8 57, ptr %26, align 1
  %27 = getelementptr inbounds i8, ptr %26, i64 1
  %28 = load i8, ptr %7, align 1
  store i8 %28, ptr %27, align 1
  %29 = getelementptr inbounds i8, ptr %27, i64 1
  store i8 109, ptr %29, align 1
  %30 = getelementptr inbounds [5 x i8], ptr %11, i64 0, i64 0
  %31 = load i32, ptr %8, align 4
  call void @_ZN5vcpkg3msgL9write_allEPKcmi(ptr noundef %30, i64 noundef 5, i32 noundef %31)
  br label %32

32:                                               ; preds = %23, %20, %17
  %33 = call noundef ptr @_ZNK5vcpkg10StringView4dataEv(ptr noundef nonnull align 8 dereferenceable(16) %6) #8
  %34 = call noundef i64 @_ZNK5vcpkg10StringView4sizeEv(ptr noundef nonnull align 8 dereferenceable(16) %6) #8
  %35 = load i32, ptr %8, align 4
  call void @_ZN5vcpkg3msgL9write_allEPKcmi(ptr noundef %33, i64 noundef %34, i32 noundef %35)
  %36 = load i8, ptr %10, align 1
  %37 = trunc i8 %36 to i1
  br i1 %37, label %38, label %40

38:                                               ; preds = %32
  %39 = load i32, ptr %8, align 4
  call void @_ZN5vcpkg3msgL9write_allEPKcmi(ptr noundef @_ZZN5vcpkg3msgL27write_unlocalized_text_implENS_5ColorENS_10StringViewEibE20reset_color_sequence, i64 noundef 4, i32 noundef %39)
  br label %40

40:                                               ; preds = %38, %32, %16
  ret void
}