; Function Attrs: mustprogress uwtable
define internal fastcc void @_ZN5vcpkg3msgL27write_unlocalized_text_implENS_5ColorENS_10StringViewEib(i8 noundef signext %0, ptr nocapture readonly %1, i64 %2, i32 noundef %3, i1 noundef zeroext %4) unnamed_addr #3 {
  %6 = alloca [5 x i8], align 1
  %7 = icmp eq i64 %2, 0
  br i1 %7, label %_ZN5vcpkg3msgL9write_allEPKcmi.exit18, label %8

8:                                                ; preds = %5
  %9 = icmp ne i8 %0, 0
  %or.cond = and i1 %9, %4
  br i1 %or.cond, label %10, label %.lr.ph.i20

10:                                               ; preds = %8
  store i8 27, ptr %6, align 1
  %11 = getelementptr inbounds i8, ptr %6, i64 1
  store i8 91, ptr %11, align 1
  %12 = getelementptr inbounds i8, ptr %6, i64 2
  store i8 57, ptr %12, align 1
  %13 = getelementptr inbounds i8, ptr %6, i64 3
  store i8 %0, ptr %13, align 1
  %14 = getelementptr inbounds i8, ptr %6, i64 4
  store i8 109, ptr %14, align 1
  br label %.lr.ph.i

.lr.ph.i:                                         ; preds = %22, %10
  %.012.i = phi ptr [ %23, %22 ], [ %6, %10 ]
  %.0811.i = phi i64 [ %24, %22 ], [ 5, %10 ]
  %15 = call i64 @write(i32 noundef %3, ptr noundef %.012.i, i64 noundef %.0811.i)
  %16 = icmp eq i64 %15, -1
  br i1 %16, label %17, label %22

17:                                               ; preds = %.lr.ph.i
  %18 = load ptr, ptr @stderr, align 8
  %19 = tail call ptr @__errno_location() #30
  %20 = load i32, ptr %19, align 4
  %21 = tail call i32 (ptr, ptr, ...) @fprintf(ptr noundef %18, ptr noundef nonnull @.str.2671, i32 noundef %20) #31
  tail call void @abort() #26
  unreachable

22:                                               ; preds = %.lr.ph.i
  %23 = getelementptr inbounds i8, ptr %.012.i, i64 %15
  %24 = sub i64 %.0811.i, %15
  %.not.i = icmp eq i64 %24, 0
  br i1 %.not.i, label %.lr.ph.i9, label %.lr.ph.i, !llvm.loop !45

.lr.ph.i9:                                        ; preds = %22, %32
  %.012.i10 = phi ptr [ %33, %32 ], [ %1, %22 ]
  %.0811.i11 = phi i64 [ %34, %32 ], [ %2, %22 ]
  %25 = tail call i64 @write(i32 noundef %3, ptr noundef %.012.i10, i64 noundef %.0811.i11)
  %26 = icmp eq i64 %25, -1
  br i1 %26, label %27, label %32

27:                                               ; preds = %.lr.ph.i9
  %28 = load ptr, ptr @stderr, align 8
  %29 = tail call ptr @__errno_location() #30
  %30 = load i32, ptr %29, align 4
  %31 = tail call i32 (ptr, ptr, ...) @fprintf(ptr noundef %28, ptr noundef nonnull @.str.2671, i32 noundef %30) #31
  tail call void @abort() #26
  unreachable

32:                                               ; preds = %.lr.ph.i9
  %33 = getelementptr inbounds i8, ptr %.012.i10, i64 %25
  %34 = sub i64 %.0811.i11, %25
  %.not.i12 = icmp eq i64 %34, 0
  br i1 %.not.i12, label %.lr.ph.i14, label %.lr.ph.i9, !llvm.loop !45

.lr.ph.i14:                                       ; preds = %32, %42
  %.012.i15 = phi ptr [ %43, %42 ], [ @_ZZN5vcpkg3msgL27write_unlocalized_text_implENS_5ColorENS_10StringViewEibE20reset_color_sequence, %32 ]
  %.0811.i16 = phi i64 [ %44, %42 ], [ 4, %32 ]
  %35 = tail call i64 @write(i32 noundef %3, ptr noundef %.012.i15, i64 noundef %.0811.i16)
  %36 = icmp eq i64 %35, -1
  br i1 %36, label %37, label %42

37:                                               ; preds = %.lr.ph.i14
  %38 = load ptr, ptr @stderr, align 8
  %39 = tail call ptr @__errno_location() #30
  %40 = load i32, ptr %39, align 4
  %41 = tail call i32 (ptr, ptr, ...) @fprintf(ptr noundef %38, ptr noundef nonnull @.str.2671, i32 noundef %40) #31
  tail call void @abort() #26
  unreachable

42:                                               ; preds = %.lr.ph.i14
  %43 = getelementptr inbounds i8, ptr %.012.i15, i64 %35
  %44 = sub i64 %.0811.i16, %35
  %.not.i17 = icmp eq i64 %44, 0
  br i1 %.not.i17, label %_ZN5vcpkg3msgL9write_allEPKcmi.exit18, label %.lr.ph.i14, !llvm.loop !45

.lr.ph.i20:                                       ; preds = %8, %52
  %.012.i21 = phi ptr [ %53, %52 ], [ %1, %8 ]
  %.0811.i22 = phi i64 [ %54, %52 ], [ %2, %8 ]
  %45 = tail call i64 @write(i32 noundef %3, ptr noundef %.012.i21, i64 noundef %.0811.i22)
  %46 = icmp eq i64 %45, -1
  br i1 %46, label %47, label %52

47:                                               ; preds = %.lr.ph.i20
  %48 = load ptr, ptr @stderr, align 8
  %49 = tail call ptr @__errno_location() #30
  %50 = load i32, ptr %49, align 4
  %51 = tail call i32 (ptr, ptr, ...) @fprintf(ptr noundef %48, ptr noundef nonnull @.str.2671, i32 noundef %50) #31
  tail call void @abort() #26
  unreachable

52:                                               ; preds = %.lr.ph.i20
  %53 = getelementptr inbounds i8, ptr %.012.i21, i64 %45
  %54 = sub i64 %.0811.i22, %45
  %.not.i23 = icmp eq i64 %54, 0
  br i1 %.not.i23, label %_ZN5vcpkg3msgL9write_allEPKcmi.exit18, label %.lr.ph.i20, !llvm.loop !45

_ZN5vcpkg3msgL9write_allEPKcmi.exit18:            ; preds = %52, %42, %5
  ret void
}